; Function Attrs: mustprogress uwtable
define hidden void @_ZN17algebraic_numbers7manager9get_lowerERKNS_4anumER4mpbq(ptr noundef nonnull readonly align 8 captures(none) dereferenceable(17) %0, ptr noundef nonnull readonly align 8 captures(none) dereferenceable(8) %1, ptr noundef nonnull align 8 dereferenceable(20) %2) local_unnamed_addr #3 align 2 {
  %4 = load ptr, ptr %1, align 8, !tbaa !66
  %5 = ptrtoint ptr %4 to i64
  %6 = and i64 %5, -8
  %7 = inttoptr i64 %6 to ptr
  %8 = getelementptr inbounds nuw i8, ptr %7, i64 16
  %9 = getelementptr inbounds nuw i8, ptr %7, i64 20
  %10 = load i8, ptr %9, align 4
  %11 = and i8 %10, 1
  %12 = icmp eq i8 %11, 0
  br i1 %12, label %13, label %18

13:                                               ; preds = %3
  %14 = load i32, ptr %8, align 8, !tbaa !22
  store i32 %14, ptr %2, align 8, !tbaa !22
  %15 = getelementptr inbounds nuw i8, ptr %2, i64 4
  %16 = load i8, ptr %15, align 4
  %17 = and i8 %16, -2
  store i8 %17, ptr %15, align 4
  br label %_ZN12mpbq_manager3setER4mpbqRKS0_.exit

18:                                               ; preds = %3
  %19 = load ptr, ptr %0, align 8, !tbaa !12
  %20 = getelementptr inbounds nuw i8, ptr %19, i64 32
  %21 = load ptr, ptr %20, align 8, !tbaa !78
  tail call void @_ZN11mpz_managerILb0EE7big_setER3mpzRKS1_(ptr noundef nonnull align 8 dereferenceable(600) %21, ptr noundef nonnull align 8 dereferenceable(20) %2, ptr noundef nonnull align 8 dereferenceable(20) %8)
  br label %_ZN12mpbq_manager3setER4mpbqRKS0_.exit

_ZN12mpbq_manager3setER4mpbqRKS0_.exit:           ; preds = %13, %18
  %22 = getelementptr inbounds nuw i8, ptr %7, i64 32
  %23 = load i32, ptr %22, align 8, !tbaa !27
  %24 = getelementptr inbounds nuw i8, ptr %2, i64 16
  store i32 %23, ptr %24, align 8, !tbaa !27
  ret void
}